target datalayout = "e-m:e-p270:32:32-p271:32:32-p272:64:64-i64:64-i128:128-f80:128-n8:16:32:64-S128"
target triple = "x86_64-pc-linux-gnu"

%struct._object = type { %union.anon, ptr }
%union.anon = type { i64 }
%struct.PyVarObject = type { %struct._object, i64 }
%struct.PyTupleObject = type { %struct.PyVarObject, [1 x ptr] }
%struct.ast_state = type { %struct._PyOnceFlag, i32, ptr, ptr, ptr, ptr, ptr, ptr, ptr, ptr, ptr, ptr, ptr, ptr, ptr, ptr, ptr, ptr, ptr, ptr, ptr, ptr, ptr, ptr, ptr, ptr, ptr, ptr, ptr, ptr, ptr, ptr, ptr, ptr, ptr, ptr, ptr, ptr, ptr, ptr, ptr, ptr, ptr, ptr, ptr, ptr, ptr, ptr, ptr, ptr, ptr, ptr, ptr, ptr, ptr, ptr, ptr, ptr, ptr, ptr, ptr, ptr, ptr, ptr, ptr, ptr, ptr, ptr, ptr, ptr, ptr, ptr, ptr, ptr, ptr, ptr, ptr, ptr, ptr, ptr, ptr, ptr, ptr, ptr, ptr, ptr, ptr, ptr, ptr, ptr, ptr, ptr, ptr, ptr, ptr, ptr, ptr, ptr, ptr, ptr, ptr, ptr, ptr, ptr, ptr, ptr, ptr, ptr, ptr, ptr, ptr, ptr, ptr, ptr, ptr, ptr, ptr, ptr, ptr, ptr, ptr, ptr, ptr, ptr, ptr, ptr, ptr, ptr, ptr, ptr, ptr, ptr, ptr, ptr, ptr, ptr, ptr, ptr, ptr, ptr, ptr, ptr, ptr, ptr, ptr, ptr, ptr, ptr, ptr, ptr, ptr, ptr, ptr, ptr, ptr, ptr, ptr, ptr, ptr, ptr, ptr, ptr, ptr, ptr, ptr, ptr, ptr, ptr, ptr, ptr, ptr, ptr, ptr, ptr, ptr, ptr, ptr, ptr, ptr, ptr, ptr, ptr, ptr, ptr, ptr, ptr, ptr, ptr, ptr, ptr, ptr, ptr, ptr, ptr, ptr, ptr, ptr, ptr, ptr, ptr, ptr, ptr, ptr, ptr, ptr, ptr, ptr, ptr, ptr, ptr, ptr, ptr, ptr, ptr, ptr, ptr, ptr, ptr, ptr, ptr, ptr, ptr, ptr, ptr, ptr, ptr, ptr, ptr, ptr, ptr, ptr, ptr, ptr, ptr, ptr, ptr, ptr, ptr, ptr, ptr, ptr, ptr, ptr, ptr, ptr }
%struct._PyOnceFlag = type { i8 }
%struct._typeobject = type { %struct.PyVarObject, ptr, i64, i64, ptr, i64, ptr, ptr, ptr, ptr, ptr, ptr, ptr, ptr, ptr, ptr, ptr, ptr, ptr, i64, ptr, ptr, ptr, ptr, i64, ptr, ptr, ptr, ptr, ptr, ptr, ptr, ptr, ptr, i64, ptr, ptr, ptr, ptr, ptr, ptr, ptr, ptr, ptr, ptr, ptr, i32, ptr, ptr, i8, i16 }
%struct.anon.4 = type { i32, i32 }

@PyType_Type = external global %struct._typeobject, align 8
@.str.406 = private unnamed_addr constant [15 x i8] c"s(O){OOOOOOOs}\00", align 1

; Function Attrs: alwaysinline nounwind uwtable
define internal i32 @_Py_IsImmortal(ptr noundef %0) #2 {
  %2 = alloca ptr, align 8
  store ptr %0, ptr %2, align 8, !tbaa !13
  %3 = load ptr, ptr %2, align 8, !tbaa !13
  %4 = getelementptr inbounds nuw %struct._object, ptr %3, i32 0, i32 0
  %5 = getelementptr inbounds nuw %struct.anon.4, ptr %4, i32 0, i32 0
  %6 = load i32, ptr %5, align 8, !tbaa !21
  %7 = icmp slt i32 %6, 0
  %8 = zext i1 %7 to i32
  ret i32 %8
}

; Function Attrs: inlinehint nounwind uwtable
define internal void @PyTuple_SET_ITEM(ptr noundef %0, i64 noundef %1, ptr noundef %2) #6 {
  %4 = alloca ptr, align 8
  %5 = alloca i64, align 8
  %6 = alloca ptr, align 8
  %7 = alloca ptr, align 8
  store ptr %0, ptr %4, align 8, !tbaa !13
  store i64 %1, ptr %5, align 8, !tbaa !22
  store ptr %2, ptr %6, align 8, !tbaa !13
  call void @llvm.lifetime.start.p0(i64 8, ptr %7) #8
  %8 = load ptr, ptr %4, align 8, !tbaa !13
  store ptr %8, ptr %7, align 8, !tbaa !26
  %9 = load ptr, ptr %6, align 8, !tbaa !13
  %10 = load ptr, ptr %7, align 8, !tbaa !26
  %11 = getelementptr inbounds nuw %struct.PyTupleObject, ptr %10, i32 0, i32 1
  %12 = load i64, ptr %5, align 8, !tbaa !22
  %13 = getelementptr [1 x ptr], ptr %11, i64 0, i64 %12
  store ptr %9, ptr %13, align 8, !tbaa !13
  call void @llvm.lifetime.end.p0(i64 8, ptr %7) #8
  ret void
}

; Function Attrs: alwaysinline nounwind uwtable
define internal void @Py_DECREF(ptr noundef %0) #2 {
  %2 = alloca ptr, align 8
  store ptr %0, ptr %2, align 8, !tbaa !13
  %3 = load ptr, ptr %2, align 8, !tbaa !13
  %4 = call i32 @_Py_IsImmortal(ptr noundef %3)
  %5 = icmp ne i32 %4, 0
  br i1 %5, label %6, label %7

6:                                                ; preds = %1
  br label %16

7:                                                ; preds = %1
  %8 = load ptr, ptr %2, align 8, !tbaa !13
  %9 = getelementptr inbounds nuw %struct._object, ptr %8, i32 0, i32 0
  %10 = getelementptr inbounds nuw %struct.anon.4, ptr %9, i32 0, i32 0
  %11 = load i32, ptr %10, align 8, !tbaa !21
  %12 = add i32 %11, -1
  store i32 %12, ptr %10, align 8, !tbaa !21
  %13 = icmp eq i32 %12, 0
  br i1 %13, label %14, label %16

14:                                               ; preds = %7
  %15 = load ptr, ptr %2, align 8, !tbaa !13
  call void @_Py_Dealloc(ptr noundef %15)
  br label %16

16:                                               ; preds = %6, %14, %7
  ret void
}

; Function Attrs: nounwind uwtable
define internal ptr @make_type(ptr noundef %0, ptr noundef %1, ptr noundef %2, ptr noundef %3, i32 noundef %4, ptr noundef %5) #0 {
  %7 = alloca ptr, align 8
  %8 = alloca ptr, align 8
  %9 = alloca ptr, align 8
  %10 = alloca ptr, align 8
  %11 = alloca ptr, align 8
  %12 = alloca i32, align 4
  %13 = alloca ptr, align 8
  %14 = alloca ptr, align 8
  %15 = alloca ptr, align 8
  %16 = alloca i32, align 4
  %17 = alloca i32, align 4
  %18 = alloca ptr, align 8
  store ptr %0, ptr %8, align 8, !tbaa !9
  store ptr %1, ptr %9, align 8, !tbaa !159
  store ptr %2, ptr %10, align 8, !tbaa !13
  store ptr %3, ptr %11, align 8, !tbaa !409
  store i32 %4, ptr %12, align 4, !tbaa !38
  store ptr %5, ptr %13, align 8, !tbaa !159
  call void @llvm.lifetime.start.p0(i64 8, ptr %14) #8
  call void @llvm.lifetime.start.p0(i64 8, ptr %15) #8
  call void @llvm.lifetime.start.p0(i64 4, ptr %16) #8
  %19 = load i32, ptr %12, align 4, !tbaa !38
  %20 = sext i32 %19 to i64
  %21 = call ptr @PyTuple_New(i64 noundef %20)
  store ptr %21, ptr %14, align 8, !tbaa !13
  %22 = load ptr, ptr %14, align 8, !tbaa !13
  %23 = icmp ne ptr %22, null
  br i1 %23, label %25, label %24

24:                                               ; preds = %6
  store ptr null, ptr %7, align 8
  store i32 1, ptr %17, align 4
  br label %76

25:                                               ; preds = %6
  store i32 0, ptr %16, align 4, !tbaa !38
  br label %26

26:                                               ; preds = %49, %25
  %27 = load i32, ptr %16, align 4, !tbaa !38
  %28 = load i32, ptr %12, align 4, !tbaa !38
  %29 = icmp slt i32 %27, %28
  br i1 %29, label %30, label %52

30:                                               ; preds = %26
  call void @llvm.lifetime.start.p0(i64 8, ptr %18) #8
  %31 = load ptr, ptr %11, align 8, !tbaa !409
  %32 = load i32, ptr %16, align 4, !tbaa !38
  %33 = sext i32 %32 to i64
  %34 = getelementptr ptr, ptr %31, i64 %33
  %35 = load ptr, ptr %34, align 8, !tbaa !159
  %36 = call ptr @PyUnicode_InternFromString(ptr noundef %35)
  store ptr %36, ptr %18, align 8, !tbaa !13
  %37 = load ptr, ptr %18, align 8, !tbaa !13
  %38 = icmp ne ptr %37, null
  br i1 %38, label %41, label %39

39:                                               ; preds = %30
  %40 = load ptr, ptr %14, align 8, !tbaa !13
  call void @Py_DECREF(ptr noundef %40)
  store ptr null, ptr %7, align 8
  store i32 1, ptr %17, align 4
  br label %46

41:                                               ; preds = %30
  %42 = load ptr, ptr %14, align 8, !tbaa !13
  %43 = load i32, ptr %16, align 4, !tbaa !38
  %44 = sext i32 %43 to i64
  %45 = load ptr, ptr %18, align 8, !tbaa !13
  call void @PyTuple_SET_ITEM(ptr noundef %42, i64 noundef %44, ptr noundef %45)
  store i32 0, ptr %17, align 4
  br label %46

46:                                               ; preds = %41, %39
  call void @llvm.lifetime.end.p0(i64 8, ptr %18) #8
  %47 = load i32, ptr %17, align 4
  switch i32 %47, label %76 [
    i32 0, label %48
  ]

48:                                               ; preds = %46
  br label %49

49:                                               ; preds = %48
  %50 = load i32, ptr %16, align 4, !tbaa !38
  %51 = add i32 %50, 1
  store i32 %51, ptr %16, align 4, !tbaa !38
  br label %26, !llvm.loop !411

52:                                               ; preds = %26
  %53 = load ptr, ptr %9, align 8, !tbaa !159
  %54 = load ptr, ptr %10, align 8, !tbaa !13
  %55 = load ptr, ptr %8, align 8, !tbaa !9
  %56 = getelementptr inbounds nuw %struct.ast_state, ptr %55, i32 0, i32 144
  %57 = load ptr, ptr %56, align 8, !tbaa !358
  %58 = load ptr, ptr %14, align 8, !tbaa !13
  %59 = load ptr, ptr %8, align 8, !tbaa !9
  %60 = getelementptr inbounds nuw %struct.ast_state, ptr %59, i32 0, i32 141
  %61 = load ptr, ptr %60, align 8, !tbaa !355
  %62 = load ptr, ptr %14, align 8, !tbaa !13
  %63 = load ptr, ptr %8, align 8, !tbaa !9
  %64 = getelementptr inbounds nuw %struct.ast_state, ptr %63, i32 0, i32 142
  %65 = load ptr, ptr %64, align 8, !tbaa !356
  %66 = load ptr, ptr %8, align 8, !tbaa !9
  %67 = getelementptr inbounds nuw %struct.ast_state, ptr %66, i32 0, i32 153
  %68 = load ptr, ptr %67, align 8, !tbaa !360
  %69 = load ptr, ptr %8, align 8, !tbaa !9
  %70 = getelementptr inbounds nuw %struct.ast_state, ptr %69, i32 0, i32 140
  %71 = load ptr, ptr %70, align 8, !tbaa !354
  %72 = load ptr, ptr %13, align 8, !tbaa !159
  %73 = call ptr (ptr, ptr, ...) @PyObject_CallFunction(ptr noundef @PyType_Type, ptr noundef @.str.406, ptr noundef %53, ptr noundef %54, ptr noundef %57, ptr noundef %58, ptr noundef %61, ptr noundef %62, ptr noundef %65, ptr noundef %68, ptr noundef %71, ptr noundef %72)
  store ptr %73, ptr %15, align 8, !tbaa !13
  %74 = load ptr, ptr %14, align 8, !tbaa !13
  call void @Py_DECREF(ptr noundef %74)
  %75 = load ptr, ptr %15, align 8, !tbaa !13
  store ptr %75, ptr %7, align 8
  store i32 1, ptr %17, align 4
  br label %76

76:                                               ; preds = %52, %46, %24
  call void @llvm.lifetime.end.p0(i64 4, ptr %16) #8
  call void @llvm.lifetime.end.p0(i64 8, ptr %15) #8
  call void @llvm.lifetime.end.p0(i64 8, ptr %14) #8
  %77 = load ptr, ptr %7, align 8
  ret ptr %77
}