; Function Attrs: nounwind uwtable
define internal fastcc ptr @make_type(ptr noundef readonly captures(none) %0, ptr noundef %1, ptr noundef %2, ptr noundef readonly captures(none) %3, i32 noundef range(i32 0, 8) %4, ptr noundef %5) unnamed_addr #0 {
  %7 = zext nneg i32 %4 to i64
  %8 = tail call ptr @PyTuple_New(i64 noundef %7) #8
  %.not = icmp eq ptr %8, null
  br i1 %.not, label %Py_DECREF.exit, label %.preheader

.preheader:                                       ; preds = %6
  %.not34 = icmp eq i32 %4, 0
  br i1 %.not34, label %._crit_edge, label %.lr.ph

.lr.ph:                                           ; preds = %.preheader
  %9 = getelementptr inbounds nuw i8, ptr %8, i64 24
  br label %10

10:                                               ; preds = %.lr.ph, %19
  %indvars.iv = phi i64 [ 0, %.lr.ph ], [ %indvars.iv.next, %19 ]
  %11 = getelementptr ptr, ptr %3, i64 %indvars.iv
  %12 = load ptr, ptr %11, align 8, !tbaa !131
  %13 = tail call ptr @PyUnicode_InternFromString(ptr noundef %12) #8
  %.not29.not = icmp eq ptr %13, null
  br i1 %.not29.not, label %14, label %19

14:                                               ; preds = %10
  %15 = load i32, ptr %8, align 8, !tbaa !9
  %.not.i30 = icmp sgt i32 %15, -1
  br i1 %.not.i30, label %16, label %Py_DECREF.exit

16:                                               ; preds = %14
  %17 = add nsw i32 %15, -1
  store i32 %17, ptr %8, align 8, !tbaa !9
  %18 = icmp eq i32 %17, 0
  br i1 %18, label %Py_DECREF.exit.sink.split, label %Py_DECREF.exit

19:                                               ; preds = %10
  %20 = getelementptr [1 x ptr], ptr %9, i64 0, i64 %indvars.iv
  store ptr %13, ptr %20, align 8, !tbaa !4
  %indvars.iv.next = add nuw nsw i64 %indvars.iv, 1
  %exitcond.not = icmp eq i64 %indvars.iv.next, %7
  br i1 %exitcond.not, label %._crit_edge, label %10, !llvm.loop !385

._crit_edge:                                      ; preds = %19, %.preheader
  %21 = getelementptr inbounds nuw i8, ptr %0, i64 1144
  %22 = load ptr, ptr %21, align 8, !tbaa !277
  %23 = getelementptr inbounds nuw i8, ptr %0, i64 1120
  %24 = load ptr, ptr %23, align 8, !tbaa !274
  %25 = getelementptr inbounds nuw i8, ptr %0, i64 1128
  %26 = load ptr, ptr %25, align 8, !tbaa !275
  %27 = getelementptr inbounds nuw i8, ptr %0, i64 1216
  %28 = load ptr, ptr %27, align 8, !tbaa !282
  %29 = getelementptr inbounds nuw i8, ptr %0, i64 1112
  %30 = load ptr, ptr %29, align 8, !tbaa !273
  %31 = tail call ptr (ptr, ptr, ...) @PyObject_CallFunction(ptr noundef nonnull @PyType_Type, ptr noundef nonnull @.str.406, ptr noundef %1, ptr noundef %2, ptr noundef %22, ptr noundef nonnull %8, ptr noundef %24, ptr noundef nonnull %8, ptr noundef %26, ptr noundef %28, ptr noundef %30, ptr noundef %5) #8
  %32 = load i32, ptr %8, align 8, !tbaa !9
  %.not.i = icmp sgt i32 %32, -1
  br i1 %.not.i, label %33, label %Py_DECREF.exit

33:                                               ; preds = %._crit_edge
  %34 = add nsw i32 %32, -1
  store i32 %34, ptr %8, align 8, !tbaa !9
  %35 = icmp eq i32 %34, 0
  br i1 %35, label %Py_DECREF.exit.sink.split, label %Py_DECREF.exit

Py_DECREF.exit.sink.split:                        ; preds = %33, %16
  %.0.ph = phi ptr [ null, %16 ], [ %31, %33 ]
  tail call void @_Py_Dealloc(ptr noundef nonnull %8) #8
  br label %Py_DECREF.exit

Py_DECREF.exit:                                   ; preds = %Py_DECREF.exit.sink.split, %14, %16, %33, %._crit_edge, %6
  %.0 = phi ptr [ null, %6 ], [ %31, %._crit_edge ], [ %31, %33 ], [ null, %16 ], [ null, %14 ], [ %.0.ph, %Py_DECREF.exit.sink.split ]
  ret ptr %.0
}